; Function Attrs: mustprogress nounwind uwtable
define hidden void @_ZN14JfrThreadLocal18exclude_jvm_threadEPK6Thread(ptr noundef %0) local_unnamed_addr #0 align 2 {
  %2 = getelementptr inbounds i8, ptr %0, i64 775
  store i8 1, ptr %2, align 1
  %3 = load ptr, ptr %0, align 8
  %4 = getelementptr inbounds i8, ptr %3, i64 56
  %5 = load ptr, ptr %4, align 8
  %6 = tail call noundef zeroext i1 %5(ptr noundef nonnull align 8 dereferenceable(888) %0) #13
  br i1 %6, label %7, label %10

7:                                                ; preds = %1
  %8 = getelementptr inbounds i8, ptr %0, i64 680
  %9 = load i64, ptr %8, align 8
  tail call void @_ZN18JfrJavaEventWriter7excludeEmPK10JavaThread(i64 noundef %9, ptr noundef nonnull %0) #13
  br label %10

10:                                               ; preds = %7, %1
  ret void
}